target datalayout = "e-m:e-p270:32:32-p271:32:32-p272:64:64-i64:64-i128:128-f80:128-n8:16:32:64-S128"
target triple = "x86_64-pc-linux-gnu"

%struct._GPtrArray = type { ptr, i32 }

@all_uats = internal global ptr null, align 8

; Function Attrs: null_pointer_is_valid sspstrong uwtable
define hidden void @uat_cleanup() #0 {
  %1 = alloca i32, align 4
  %2 = alloca ptr, align 8
  call void @llvm.lifetime.start.p0(i64 4, ptr %1) #13
  call void @llvm.lifetime.start.p0(i64 8, ptr %2) #13
  store i32 0, ptr %1, align 4
  br label %3

3:                                                ; preds = %18, %0
  %4 = load i32, ptr %1, align 4
  %5 = load ptr, ptr @all_uats, align 8
  %6 = getelementptr inbounds nuw %struct._GPtrArray, ptr %5, i32 0, i32 1
  %7 = load i32, ptr %6, align 8
  %8 = icmp ult i32 %4, %7
  br i1 %8, label %9, label %21

9:                                                ; preds = %3
  %10 = load ptr, ptr @all_uats, align 8
  %11 = getelementptr inbounds nuw %struct._GPtrArray, ptr %10, i32 0, i32 0
  %12 = load ptr, ptr %11, align 8
  %13 = load i32, ptr %1, align 4
  %14 = zext i32 %13 to i64
  %15 = getelementptr ptr, ptr %12, i64 %14
  %16 = load ptr, ptr %15, align 8
  store ptr %16, ptr %2, align 8
  %17 = load ptr, ptr %2, align 8
  call void @free_uat(ptr noundef %17)
  br label %18

18:                                               ; preds = %9
  %19 = load i32, ptr %1, align 4
  %20 = add i32 %19, 1
  store i32 %20, ptr %1, align 4
  br label %3, !llvm.loop !27

21:                                               ; preds = %3
  %22 = load ptr, ptr @all_uats, align 8
  %23 = call ptr @g_ptr_array_free(ptr noundef %22, i32 noundef 1)
  call void @llvm.lifetime.end.p0(i64 8, ptr %2) #13
  call void @llvm.lifetime.end.p0(i64 4, ptr %1) #13
  ret void
}