; Function Attrs: null_pointer_is_valid sspstrong uwtable
define hidden void @uat_cleanup() local_unnamed_addr #0 {
  %1 = load ptr, ptr @all_uats, align 8
  %2 = getelementptr inbounds nuw i8, ptr %1, i64 8
  %3 = load i32, ptr %2, align 8
  %.not = icmp eq i32 %3, 0
  br i1 %.not, label %._crit_edge, label %.lr.ph

.lr.ph:                                           ; preds = %0, %.lr.ph
  %indvars.iv = phi i64 [ %indvars.iv.next, %.lr.ph ], [ 0, %0 ]
  %4 = phi ptr [ %8, %.lr.ph ], [ %1, %0 ]
  %5 = load ptr, ptr %4, align 8
  %6 = getelementptr ptr, ptr %5, i64 %indvars.iv
  %7 = load ptr, ptr %6, align 8
  tail call fastcc void @free_uat(ptr noundef %7)
  %indvars.iv.next = add nuw nsw i64 %indvars.iv, 1
  %8 = load ptr, ptr @all_uats, align 8
  %9 = getelementptr inbounds nuw i8, ptr %8, i64 8
  %10 = load i32, ptr %9, align 8
  %11 = zext i32 %10 to i64
  %12 = icmp samesign ult i64 %indvars.iv.next, %11
  br i1 %12, label %.lr.ph, label %._crit_edge, !llvm.loop !28

._crit_edge:                                      ; preds = %.lr.ph, %0
  %.lcssa = phi ptr [ %1, %0 ], [ %8, %.lr.ph ]
  %13 = tail call ptr @g_ptr_array_free(ptr noundef %.lcssa, i32 noundef 1)
  ret void
}